(dp0
I4224
(dp1
S'ip'
p2
S'127.0.0.1'
p3
sS'port_local'
p4
I57438
sS'port'
p5
I4224
sS'fileList'
p6
(dp7
S'file'
p8
S'file.txt'
p9
ssS'nick'
p10
S'pc1'
p11
ssI4225
(dp12
S'ip'
p13
S'127.0.0.1'
p14
sS'port_local'
p15
I57441
sS'port'
p16
I4225
sS'fileList'
p17
(dp18
sS'nick'
p19
S'pc2 '
p20
ssI4226
(dp21
S'ip'
p22
S'127.0.0.1'
p23
sS'nick'
p24
S'ali1'
p25
sS'port'
p26
I4226
sS'fileList'
p27
(dp28
S'file1'
p29
S'file1.txt'
p30
ssS'port_local'
p31
I58898
ssI4260
(dp32
S'ip'
p33
S'127.0.0.1'
p34
sS'port_local'
p35
I53364
sS'port'
p36
I4260
sS'fileList'
p37
(dp38
S'file'
p39
S'file.txt'
p40
ssS'nick'
p41
S'ali1'
p42
ssI4261
(dp43
S'ip'
p44
S'127.0.0.1'
p45
sS'nick'
p46
S'ali2'
p47
sS'port'
p48
I4261
sS'fileList'
p49
(dp50
S'file'
p51
S'file.txt'
p52
ssS'port_local'
p53
I53365
ssI4257
(dp54
S'ip'
p55
S'127.0.0.1'
p56
sS'nick'
p57
S'ahmed'
p58
sS'port'
p59
I4257
sS'fileList'
p60
(dp61
sS'port_local'
p62
I53193
ssI4233
(dp63
S'ip'
p64
S'127.0.0.1'
p65
sS'nick'
p66
S'alia'
p67
sS'port'
p68
I4233
sS'fileList'
p69
(dp70
S'file1'
p71
S'file1.txt'
p72
ssS'port_local'
p73
I60766
ssI4236
(dp74
S'ip'
p75
S'127.0.0.1'
p76
sS'nick'
p77
S'alipc'
p78
sS'port'
p79
I4236
sS'fileList'
p80
(dp81
S'file1.txt'
p82
S'file1.txt'
p83
ssS'port_local'
p84
I64207
ssI4239
(dp85
S'ip'
p86
S'127.0.0.1'
p87
sS'nick'
p88
S'ali'
p89
sS'port'
p90
I4239
sS'fileList'
p91
(dp92
S'f1'
p93
S'file1.txt'
p94
ssS'port_local'
p95
I64210
ssI4242
(dp96
S'ip'
p97
S'127.0.0.1'
p98
sS'nick'
p99
S'al'
p100
sS'port'
p101
I4242
sS'fileList'
p102
(dp103
sS'port_local'
p104
I64237
ssI4245
(dp105
S'ip'
p106
S'127.0.0.1'
p107
sS'port_local'
p108
I52558
sS'port'
p109
I4245
sS'fileList'
p110
(dp111
S'file1.txt'
p112
S'file1.txt'
p113
sS'file'
p114
S'file1.txt'
p115
ssS'nick'
p116
S'alia'
p117
ssI4249
(dp118
S'ip'
p119
S'127.0.0.1'
p120
sS'nick'
p121
S'ahmed'
p122
sS'port'
p123
I4249
sS'fileList'
p124
(dp125
S'ff'
p126
S'file2.txt'
p127
ssS'port_local'
p128
I52744
ssI4251
(dp129
S'ip'
p130
S'127.0.0.1'
p131
sS'nick'
p132
S'ahmed'
p133
sS'port'
p134
I4251
sS'fileList'
p135
(dp136
S'ali'
p137
S'file1'
p138
ssS'port_local'
p139
I52827
ssI4254
(dp140
S'ip'
p141
S'127.0.0.1'
p142
sS'nick'
p143
S'aqaq'
p144
sS'port'
p145
I4254
sS'fileList'
p146
(dp147
S'ali'
p148
S'file1.txt'
p149
ssS'port_local'
p150
I52952
ssI4223
(dp151
S'ip'
p152
S'127.0.0.1'
p153
sS'nick'
p154
S'pc1 '
p155
sS'port'
p156
I4223
sS'fileList'
p157
(dp158
sS'port_local'
p159
I57436
ss.